; Function Attrs: mustprogress uwtable
define hidden void @_ZN5osgeo4proj3crs13GeographicCRS15createOGC_CRS84Ev(ptr dead_on_unwind noalias writable sret(%"class.dropbox::oxygen::nn.322") align 8 %0) local_unnamed_addr #6 align 2 personality ptr @__gxx_personality_v0 {
  %2 = alloca %"class.std::shared_ptr.93", align 8
  %3 = alloca %"class.osgeo::proj::util::PropertyMap", align 8
  %4 = alloca %"class.dropbox::oxygen::nn.313", align 8
  call void @_ZN5osgeo4proj4util11PropertyMapC1Ev(ptr noundef nonnull align 8 dereferenceable(8) %3)
  %5 = invoke noundef nonnull align 8 dereferenceable(8) ptr @_ZN5osgeo4proj4util11PropertyMap3setERKNSt7__cxx1112basic_stringIcSt11char_traitsIcESaIcEEESA_(ptr noundef nonnull align 8 dereferenceable(8) %3, ptr noundef nonnull align 8 dereferenceable(32) @_ZN5osgeo4proj8metadata10Identifier13CODESPACE_KEYB5cxx11E, ptr noundef nonnull align 8 dereferenceable(32) @_ZN5osgeo4proj8metadata10Identifier3OGCB5cxx11E)
          to label %6 unwind label %87

6:                                                ; preds = %1
  %7 = invoke noundef nonnull align 8 dereferenceable(8) ptr @_ZN5osgeo4proj4util11PropertyMap3setERKNSt7__cxx1112basic_stringIcSt11char_traitsIcESaIcEEEPKc(ptr noundef nonnull align 8 dereferenceable(8) %5, ptr noundef nonnull align 8 dereferenceable(32) @_ZN5osgeo4proj8metadata10Identifier8CODE_KEYB5cxx11E, ptr noundef nonnull @.str.69)
          to label %8 unwind label %87

8:                                                ; preds = %6
  %9 = invoke noundef nonnull align 8 dereferenceable(8) ptr @_ZN5osgeo4proj4util11PropertyMap3setERKNSt7__cxx1112basic_stringIcSt11char_traitsIcESaIcEEEPKc(ptr noundef nonnull align 8 dereferenceable(8) %7, ptr noundef nonnull align 8 dereferenceable(32) @_ZN5osgeo4proj6common16IdentifiedObject8NAME_KEYB5cxx11E, ptr noundef nonnull @.str.70)
          to label %10 unwind label %87

10:                                               ; preds = %8
  invoke void @_ZN5osgeo4proj2cs13EllipsoidalCS23createLongitudeLatitudeERKNS0_6common13UnitOfMeasureE(ptr dead_on_unwind nonnull writable sret(%"class.dropbox::oxygen::nn.313") align 8 %4, ptr noundef nonnull align 8 dereferenceable(24) @_ZN5osgeo4proj6common13UnitOfMeasure6DEGREEE)
          to label %11 unwind label %87

11:                                               ; preds = %10
  call void @llvm.lifetime.start.p0(i64 16, ptr nonnull %2)
  call void @llvm.memset.p0.i64(ptr noundef nonnull align 8 dereferenceable(16) %2, i8 0, i64 16, i1 false), !noalias !587
  invoke void @_ZN5osgeo4proj3crs13GeographicCRS6createERKNS0_4util11PropertyMapERKSt10shared_ptrINS0_5datum22GeodeticReferenceFrameEERKS7_INS8_13DatumEnsembleEERKN7dropbox6oxygen2nnIS7_INS0_2cs13EllipsoidalCSEEEE(ptr dead_on_unwind writable sret(%"class.dropbox::oxygen::nn.322") align 8 %0, ptr noundef nonnull align 8 dereferenceable(8) %3, ptr noundef nonnull align 8 dereferenceable(16) @_ZN5osgeo4proj5datum22GeodeticReferenceFrame9EPSG_6326E, ptr noundef nonnull align 8 dereferenceable(16) %2, ptr noundef nonnull align 8 dereferenceable(16) %4)
          to label %12 unwind label %.body

12:                                               ; preds = %11
  %13 = getelementptr inbounds i8, ptr %2, i64 8
  %14 = load ptr, ptr %13, align 8, !noalias !587
  %.not.i.i.i.i = icmp eq ptr %14, null
  br i1 %.not.i.i.i.i, label %50, label %15

15:                                               ; preds = %12
  %16 = getelementptr inbounds i8, ptr %14, i64 8
  %17 = load atomic i64, ptr %16 acquire, align 8
  %18 = icmp eq i64 %17, 4294967297
  %19 = trunc i64 %17 to i32
  br i1 %18, label %20, label %25

20:                                               ; preds = %15
  store i32 0, ptr %16, align 8
  %21 = getelementptr inbounds i8, ptr %14, i64 12
  store i32 0, ptr %21, align 4
  %22 = load ptr, ptr %14, align 8
  %23 = getelementptr inbounds i8, ptr %22, i64 16
  %24 = load ptr, ptr %23, align 8
  call void %24(ptr noundef nonnull align 8 dereferenceable(16) %14) #37
  br label %_ZNSt16_Sp_counted_baseILN9__gnu_cxx12_Lock_policyE2EE24_M_release_last_use_coldEv.exit.sink.split.i.i.i.i.i

25:                                               ; preds = %15
  %26 = load i8, ptr @__libc_single_threaded, align 1, !noalias !587
  %.not.i.i.i.i.i = icmp eq i8 %26, 0
  br i1 %.not.i.i.i.i.i, label %29, label %27

27:                                               ; preds = %25
  %28 = add nsw i32 %19, -1
  store i32 %28, ptr %16, align 4
  br label %31

29:                                               ; preds = %25
  %30 = atomicrmw volatile add ptr %16, i32 -1 acq_rel, align 4
  br label %31

31:                                               ; preds = %29, %27
  %.0.i.i.i.i.i = phi i32 [ %19, %27 ], [ %30, %29 ]
  %32 = icmp eq i32 %.0.i.i.i.i.i, 1
  br i1 %32, label %33, label %50

33:                                               ; preds = %31
  %34 = load ptr, ptr %14, align 8
  %35 = getelementptr inbounds i8, ptr %34, i64 16
  %36 = load ptr, ptr %35, align 8
  call void %36(ptr noundef nonnull align 8 dereferenceable(16) %14) #37
  %37 = getelementptr inbounds i8, ptr %14, i64 12
  %38 = load i8, ptr @__libc_single_threaded, align 1, !noalias !587
  %.not.i.i.i.i.i.i.i = icmp eq i8 %38, 0
  br i1 %.not.i.i.i.i.i.i.i, label %42, label %39

39:                                               ; preds = %33
  %40 = load i32, ptr %37, align 4
  %41 = add nsw i32 %40, -1
  store i32 %41, ptr %37, align 4
  br label %44

42:                                               ; preds = %33
  %43 = atomicrmw volatile add ptr %37, i32 -1 acq_rel, align 4
  br label %44

44:                                               ; preds = %42, %39
  %.0.i.i.i.i.i.i.i = phi i32 [ %40, %39 ], [ %43, %42 ]
  %45 = icmp eq i32 %.0.i.i.i.i.i.i.i, 1
  br i1 %45, label %_ZNSt16_Sp_counted_baseILN9__gnu_cxx12_Lock_policyE2EE24_M_release_last_use_coldEv.exit.sink.split.i.i.i.i.i, label %50

_ZNSt16_Sp_counted_baseILN9__gnu_cxx12_Lock_policyE2EE24_M_release_last_use_coldEv.exit.sink.split.i.i.i.i.i: ; preds = %44, %20
  %46 = load ptr, ptr %14, align 8
  %47 = getelementptr inbounds i8, ptr %46, i64 24
  %48 = load ptr, ptr %47, align 8
  call void %48(ptr noundef nonnull align 8 dereferenceable(16) %14) #37
  br label %50

.body:                                            ; preds = %11
  %49 = landingpad { ptr, i32 }
          cleanup
  call void @_ZNSt10shared_ptrIN5osgeo4proj5datum13DatumEnsembleEED2Ev(ptr noundef nonnull align 8 dereferenceable(16) %2) #37
  call void @_ZN7dropbox6oxygen2nnISt10shared_ptrIN5osgeo4proj2cs13EllipsoidalCSEEED2Ev(ptr noundef nonnull align 8 dereferenceable(16) %4) #37
  br label %89

50:                                               ; preds = %_ZNSt16_Sp_counted_baseILN9__gnu_cxx12_Lock_policyE2EE24_M_release_last_use_coldEv.exit.sink.split.i.i.i.i.i, %44, %31, %12
  call void @llvm.lifetime.end.p0(i64 16, ptr nonnull %2)
  %51 = getelementptr inbounds i8, ptr %4, i64 8
  %52 = load ptr, ptr %51, align 8
  %.not.i.i.i.i3 = icmp eq ptr %52, null
  br i1 %.not.i.i.i.i3, label %_ZN7dropbox6oxygen2nnISt10shared_ptrIN5osgeo4proj2cs13EllipsoidalCSEEED2Ev.exit, label %53

53:                                               ; preds = %50
  %54 = getelementptr inbounds i8, ptr %52, i64 8
  %55 = load atomic i64, ptr %54 acquire, align 8
  %56 = icmp eq i64 %55, 4294967297
  %57 = trunc i64 %55 to i32
  br i1 %56, label %58, label %63

58:                                               ; preds = %53
  store i32 0, ptr %54, align 8
  %59 = getelementptr inbounds i8, ptr %52, i64 12
  store i32 0, ptr %59, align 4
  %60 = load ptr, ptr %52, align 8
  %61 = getelementptr inbounds i8, ptr %60, i64 16
  %62 = load ptr, ptr %61, align 8
  call void %62(ptr noundef nonnull align 8 dereferenceable(16) %52) #37
  br label %_ZNSt16_Sp_counted_baseILN9__gnu_cxx12_Lock_policyE2EE24_M_release_last_use_coldEv.exit.sink.split.i.i.i.i.i8

63:                                               ; preds = %53
  %64 = load i8, ptr @__libc_single_threaded, align 1
  %.not.i.i.i.i.i4 = icmp eq i8 %64, 0
  br i1 %.not.i.i.i.i.i4, label %67, label %65

65:                                               ; preds = %63
  %66 = add nsw i32 %57, -1
  store i32 %66, ptr %54, align 4
  br label %69

67:                                               ; preds = %63
  %68 = atomicrmw volatile add ptr %54, i32 -1 acq_rel, align 4
  br label %69

69:                                               ; preds = %67, %65
  %.0.i.i.i.i.i5 = phi i32 [ %57, %65 ], [ %68, %67 ]
  %70 = icmp eq i32 %.0.i.i.i.i.i5, 1
  br i1 %70, label %71, label %_ZN7dropbox6oxygen2nnISt10shared_ptrIN5osgeo4proj2cs13EllipsoidalCSEEED2Ev.exit

71:                                               ; preds = %69
  %72 = load ptr, ptr %52, align 8
  %73 = getelementptr inbounds i8, ptr %72, i64 16
  %74 = load ptr, ptr %73, align 8
  call void %74(ptr noundef nonnull align 8 dereferenceable(16) %52) #37
  %75 = getelementptr inbounds i8, ptr %52, i64 12
  %76 = load i8, ptr @__libc_single_threaded, align 1
  %.not.i.i.i.i.i.i.i6 = icmp eq i8 %76, 0
  br i1 %.not.i.i.i.i.i.i.i6, label %80, label %77

77:                                               ; preds = %71
  %78 = load i32, ptr %75, align 4
  %79 = add nsw i32 %78, -1
  store i32 %79, ptr %75, align 4
  br label %82

80:                                               ; preds = %71
  %81 = atomicrmw volatile add ptr %75, i32 -1 acq_rel, align 4
  br label %82

82:                                               ; preds = %80, %77
  %.0.i.i.i.i.i.i.i7 = phi i32 [ %78, %77 ], [ %81, %80 ]
  %83 = icmp eq i32 %.0.i.i.i.i.i.i.i7, 1
  br i1 %83, label %_ZNSt16_Sp_counted_baseILN9__gnu_cxx12_Lock_policyE2EE24_M_release_last_use_coldEv.exit.sink.split.i.i.i.i.i8, label %_ZN7dropbox6oxygen2nnISt10shared_ptrIN5osgeo4proj2cs13EllipsoidalCSEEED2Ev.exit

_ZNSt16_Sp_counted_baseILN9__gnu_cxx12_Lock_policyE2EE24_M_release_last_use_coldEv.exit.sink.split.i.i.i.i.i8: ; preds = %82, %58
  %84 = load ptr, ptr %52, align 8
  %85 = getelementptr inbounds i8, ptr %84, i64 24
  %86 = load ptr, ptr %85, align 8
  call void %86(ptr noundef nonnull align 8 dereferenceable(16) %52) #37
  br label %_ZN7dropbox6oxygen2nnISt10shared_ptrIN5osgeo4proj2cs13EllipsoidalCSEEED2Ev.exit

_ZN7dropbox6oxygen2nnISt10shared_ptrIN5osgeo4proj2cs13EllipsoidalCSEEED2Ev.exit: ; preds = %50, %69, %82, %_ZNSt16_Sp_counted_baseILN9__gnu_cxx12_Lock_policyE2EE24_M_release_last_use_coldEv.exit.sink.split.i.i.i.i.i8
  call void @_ZN5osgeo4proj4util11PropertyMapD1Ev(ptr noundef nonnull align 8 dereferenceable(8) %3) #37
  ret void

87:                                               ; preds = %10, %8, %6, %1
  %88 = landingpad { ptr, i32 }
          cleanup
  br label %89

89:                                               ; preds = %.body, %87
  %.pn = phi { ptr, i32 } [ %49, %.body ], [ %88, %87 ]
  call void @_ZN5osgeo4proj4util11PropertyMapD1Ev(ptr noundef nonnull align 8 dereferenceable(8) %3) #37
  resume { ptr, i32 } %.pn
}